; Function Attrs: nounwind uwtable
define dso_local range(i32 -1, 2) i32 @virtual_filepath(ptr noundef readonly captures(none) %0, ptr noundef writeonly captures(none) initializes((0, 8)) %1) local_unnamed_addr #0 {
virtual_filepath_ex.exit:
  %2 = alloca %struct._cwd_state, align 8
  call void @llvm.lifetime.start.p0(i64 16, ptr nonnull %2) #22
  %3 = load i64, ptr getelementptr inbounds nuw (i8, ptr @cwd_globals, i64 8), align 8, !tbaa !13
  %4 = getelementptr inbounds nuw i8, ptr %2, i64 8
  store i64 %3, ptr %4, align 8, !tbaa !12
  %5 = add i64 %3, 1
  %6 = tail call noalias ptr @_emalloc(i64 noundef %5) #24
  store ptr %6, ptr %2, align 8, !tbaa !4
  %7 = load ptr, ptr @cwd_globals, align 8, !tbaa !15
  %8 = load i64, ptr getelementptr inbounds nuw (i8, ptr @cwd_globals, i64 8), align 8, !tbaa !13
  %9 = add i64 %8, 1
  tail call void @llvm.memcpy.p0.p0.i64(ptr align 1 %6, ptr align 1 %7, i64 %9, i1 false)
  %10 = call range(i32 -1, 2) i32 @virtual_file_ex(ptr noundef nonnull %2, ptr noundef readonly %0, ptr noundef nonnull @php_is_file_ok, i32 noundef 1)
  %11 = load ptr, ptr %2, align 8, !tbaa !4
  store ptr %11, ptr %1, align 8, !tbaa !34
  call void @llvm.lifetime.end.p0(i64 16, ptr nonnull %2) #22
  ret i32 %10
}